target datalayout = "e-m:e-p270:32:32-p271:32:32-p272:64:64-i64:64-i128:128-f80:128-n8:16:32:64-S128"
target triple = "x86_64-pc-linux-gnu"

%struct.cli_ctx_tag = type { ptr, ptr, ptr, ptr, ptr, ptr, ptr, i64, ptr, i32, i32, ptr, i32, i32, ptr, [16 x i8], ptr, ptr, ptr, ptr, ptr, ptr, %struct.timeval, i8, i8 }
%struct.timeval = type { i64, i64 }
%struct.cl_engine = type { i32, i32, i32, [2 x i32], i32, i32, i32, ptr, i32, i64, i32, i32, i64, i64, i32, i32, i32, i32, ptr, ptr, ptr, ptr, ptr, ptr, ptr, ptr, ptr, ptr, ptr, ptr, ptr, ptr, ptr, ptr, ptr, ptr, ptr, i64, ptr, %struct.crtmgr, ptr, ptr, ptr, ptr, ptr, ptr, ptr, ptr, ptr, ptr, ptr, ptr, ptr, ptr, ptr, ptr, ptr, %struct.cli_all_bc, [7 x ptr], [7 x i32], i32, i32, i32, i32, i64, i64, i64, i64, i64, ptr, ptr, ptr, ptr, ptr, ptr, ptr, ptr, ptr, i32, i32, i32, i64, i64, i64, ptr }
%struct.crtmgr = type { ptr, i32 }
%struct.cli_all_bc = type { ptr, i32, ptr, %struct.cli_environment, i32 }
%struct.cli_environment = type { i32, i32, i32, i32, i32, i32, i32, [65 x i8], [65 x i8], [65 x i8], [65 x i8], [65 x i8], [65 x i8], [65 x i8], i8, i8, i8, i8, i8, i8, i8, i8, i8 }

@.str.276 = private unnamed_addr constant [21 x i8] c"in cli_scanscrenc()\0A\00", align 1
@.str.277 = private unnamed_addr constant [11 x i8] c"screnc-tmp\00", align 1
@.str.278 = private unnamed_addr constant [42 x i8] c"CHM: Can't create temporary directory %s\0A\00", align 1

; Function Attrs: nounwind uwtable
define internal i32 @cli_scanscrenc(ptr noundef %0) #0 {
  %2 = alloca i32, align 4
  %3 = alloca ptr, align 8
  %4 = alloca ptr, align 8
  %5 = alloca i32, align 4
  store ptr %0, ptr %3, align 8
  store i32 0, ptr %5, align 4
  call void (ptr, ...) @cli_dbgmsg(ptr noundef @.str.276)
  %6 = load ptr, ptr %3, align 8
  %7 = getelementptr inbounds %struct.cli_ctx_tag, ptr %6, i32 0, i32 2
  %8 = load ptr, ptr %7, align 8
  %9 = call ptr @cli_gentemp_with_prefix(ptr noundef %8, ptr noundef @.str.277)
  store ptr %9, ptr %4, align 8
  %10 = icmp ne ptr %9, null
  br i1 %10, label %12, label %11

11:                                               ; preds = %1
  store i32 20, ptr %2, align 4
  br label %42

12:                                               ; preds = %1
  %13 = load ptr, ptr %4, align 8
  %14 = call i32 @mkdir(ptr noundef %13, i32 noundef 448) #11
  %15 = icmp ne i32 %14, 0
  br i1 %15, label %16, label %19

16:                                               ; preds = %12
  %17 = load ptr, ptr %4, align 8
  call void (ptr, ...) @cli_dbgmsg(ptr noundef @.str.278, ptr noundef %17)
  %18 = load ptr, ptr %4, align 8
  call void @free(ptr noundef %18) #11
  store i32 18, ptr %2, align 4
  br label %42

19:                                               ; preds = %12
  %20 = load ptr, ptr %3, align 8
  %21 = getelementptr inbounds %struct.cli_ctx_tag, ptr %20, i32 0, i32 14
  %22 = load ptr, ptr %21, align 8
  %23 = load ptr, ptr %4, align 8
  %24 = call zeroext i1 @html_screnc_decode(ptr noundef %22, ptr noundef %23)
  br i1 %24, label %25, label %29

25:                                               ; preds = %19
  %26 = load ptr, ptr %4, align 8
  %27 = load ptr, ptr %3, align 8
  %28 = call i32 @cli_magic_scan_dir(ptr noundef %26, ptr noundef %27, i32 noundef 0)
  store i32 %28, ptr %5, align 4
  br label %29

29:                                               ; preds = %25, %19
  %30 = load ptr, ptr %3, align 8
  %31 = getelementptr inbounds %struct.cli_ctx_tag, ptr %30, i32 0, i32 6
  %32 = load ptr, ptr %31, align 8
  %33 = getelementptr inbounds %struct.cl_engine, ptr %32, i32 0, i32 8
  %34 = load i32, ptr %33, align 8
  %35 = icmp ne i32 %34, 0
  br i1 %35, label %39, label %36

36:                                               ; preds = %29
  %37 = load ptr, ptr %4, align 8
  %38 = call i32 @cli_rmdirs(ptr noundef %37)
  br label %39

39:                                               ; preds = %36, %29
  %40 = load ptr, ptr %4, align 8
  call void @free(ptr noundef %40) #11
  %41 = load i32, ptr %5, align 4
  store i32 %41, ptr %2, align 4
  br label %42

42:                                               ; preds = %39, %16, %11
  %43 = load i32, ptr %2, align 4
  ret i32 %43
}