; Function Attrs: nounwind uwtable
define internal fastcc i32 @cli_scanscrenc(ptr noundef %0) unnamed_addr #0 {
  tail call void (ptr, ...) @cli_dbgmsg(ptr noundef nonnull @.str.276) #16
  %2 = getelementptr inbounds nuw i8, ptr %0, i64 16
  %3 = load ptr, ptr %2, align 8
  %4 = tail call ptr @cli_gentemp_with_prefix(ptr noundef %3, ptr noundef nonnull @.str.277) #16
  %.not = icmp eq ptr %4, null
  br i1 %.not, label %21, label %5

5:                                                ; preds = %1
  %6 = tail call i32 @mkdir(ptr noundef nonnull %4, i32 noundef 448) #16
  %.not14 = icmp eq i32 %6, 0
  br i1 %.not14, label %8, label %7

7:                                                ; preds = %5
  tail call void (ptr, ...) @cli_dbgmsg(ptr noundef nonnull @.str.278, ptr noundef nonnull %4) #16
  br label %.sink.split

8:                                                ; preds = %5
  %9 = getelementptr inbounds nuw i8, ptr %0, i64 96
  %10 = load ptr, ptr %9, align 8
  %11 = tail call zeroext i1 @html_screnc_decode(ptr noundef %10, ptr noundef nonnull %4) #16
  br i1 %11, label %12, label %14

12:                                               ; preds = %8
  %13 = tail call i32 @cli_magic_scan_dir(ptr noundef nonnull %4, ptr noundef nonnull %0, i32 noundef 0)
  br label %14

14:                                               ; preds = %12, %8
  %.0 = phi i32 [ %13, %12 ], [ 0, %8 ]
  %15 = getelementptr inbounds nuw i8, ptr %0, i64 48
  %16 = load ptr, ptr %15, align 8
  %17 = getelementptr inbounds nuw i8, ptr %16, i64 40
  %18 = load i32, ptr %17, align 8
  %.not15 = icmp eq i32 %18, 0
  br i1 %.not15, label %19, label %.sink.split

19:                                               ; preds = %14
  %20 = tail call i32 @cli_rmdirs(ptr noundef nonnull %4) #16
  br label %.sink.split

.sink.split:                                      ; preds = %14, %19, %7
  %.012.ph = phi i32 [ 18, %7 ], [ %.0, %19 ], [ %.0, %14 ]
  tail call void @free(ptr noundef nonnull %4) #16
  br label %21

21:                                               ; preds = %.sink.split, %1
  %.012 = phi i32 [ 20, %1 ], [ %.012.ph, %.sink.split ]
  ret i32 %.012
}